target datalayout = "e-m:e-p270:32:32-p271:32:32-p272:64:64-i64:64-i128:128-f80:128-n8:16:32:64-S128"
target triple = "x86_64-pc-linux-gnu"

%struct.mbedtls_gcm_context = type { %struct.mbedtls_cipher_context_t, [16 x [2 x i64]], i64, i64, [16 x i8], [16 x i8], [16 x i8], i8, i8 }
%struct.mbedtls_cipher_context_t = type { ptr, i32, i32, ptr, ptr, [16 x i8], i64, [16 x i8], i64, ptr, ptr }

; Function Attrs: alwaysinline nounwind uwtable
define internal void @mbedtls_put_unaligned_uint32(ptr noundef %0, i32 noundef %1) #6 {
  %3 = alloca ptr, align 8
  %4 = alloca i32, align 4
  store ptr %0, ptr %3, align 8, !tbaa !30
  store i32 %1, ptr %4, align 4, !tbaa !8
  %5 = load ptr, ptr %3, align 8, !tbaa !30
  call void @llvm.memcpy.p0.p0.i64(ptr align 1 %5, ptr align 4 %4, i64 4, i1 false)
  ret void
}

; Function Attrs: alwaysinline nounwind uwtable
define internal i32 @mbedtls_get_unaligned_uint32(ptr noundef %0) #6 {
  %2 = alloca ptr, align 8
  %3 = alloca i32, align 4
  store ptr %0, ptr %2, align 8, !tbaa !30
  call void @llvm.lifetime.start.p0(i64 4, ptr %3) #9
  %4 = load ptr, ptr %2, align 8, !tbaa !30
  call void @llvm.memcpy.p0.p0.i64(ptr align 4 %3, ptr align 1 %4, i64 4, i1 false)
  %5 = load i32, ptr %3, align 4, !tbaa !8
  call void @llvm.lifetime.end.p0(i64 4, ptr %3) #9
  ret i32 %5
}

; Function Attrs: nounwind uwtable
define internal void @gcm_incr(ptr noundef %0) #0 {
  %2 = alloca ptr, align 8
  %3 = alloca i32, align 4
  store ptr %0, ptr %2, align 8, !tbaa !10
  call void @llvm.lifetime.start.p0(i64 4, ptr %3) #9
  %4 = load ptr, ptr %2, align 8, !tbaa !10
  %5 = getelementptr inbounds i8, ptr %4, i64 12
  %6 = call i32 @mbedtls_get_unaligned_uint32(ptr noundef %5)
  %7 = call i32 @llvm.bswap.i32(i32 %6)
  store i32 %7, ptr %3, align 4, !tbaa !8
  %8 = load i32, ptr %3, align 4, !tbaa !8
  %9 = add i32 %8, 1
  store i32 %9, ptr %3, align 4, !tbaa !8
  %10 = load ptr, ptr %2, align 8, !tbaa !10
  %11 = getelementptr inbounds i8, ptr %10, i64 12
  %12 = load i32, ptr %3, align 4, !tbaa !8
  %13 = call i32 @llvm.bswap.i32(i32 %12)
  call void @mbedtls_put_unaligned_uint32(ptr noundef %11, i32 noundef %13)
  call void @llvm.lifetime.end.p0(i64 4, ptr %3) #9
  ret void
}

; Function Attrs: nounwind uwtable
define hidden i32 @mbedtls_gcm_update(ptr noundef %0, ptr noundef %1, i64 noundef %2, ptr noundef %3, i64 noundef %4, ptr noundef %5) #0 {
  %7 = alloca i32, align 4
  %8 = alloca ptr, align 8
  %9 = alloca ptr, align 8
  %10 = alloca i64, align 8
  %11 = alloca ptr, align 8
  %12 = alloca i64, align 8
  %13 = alloca ptr, align 8
  %14 = alloca i32, align 4
  %15 = alloca ptr, align 8
  %16 = alloca ptr, align 8
  %17 = alloca i64, align 8
  %18 = alloca [16 x i8], align 16
  %19 = alloca i32, align 4
  %20 = alloca i64, align 8
  store ptr %0, ptr %8, align 8, !tbaa !3
  store ptr %1, ptr %9, align 8, !tbaa !10
  store i64 %2, ptr %10, align 8, !tbaa !14
  store ptr %3, ptr %11, align 8, !tbaa !10
  store i64 %4, ptr %12, align 8, !tbaa !14
  store ptr %5, ptr %13, align 8, !tbaa !34
  call void @llvm.lifetime.start.p0(i64 4, ptr %14) #9
  store i32 -110, ptr %14, align 4, !tbaa !8
  call void @llvm.lifetime.start.p0(i64 8, ptr %15) #9
  %21 = load ptr, ptr %9, align 8, !tbaa !10
  store ptr %21, ptr %15, align 8, !tbaa !10
  call void @llvm.lifetime.start.p0(i64 8, ptr %16) #9
  %22 = load ptr, ptr %11, align 8, !tbaa !10
  store ptr %22, ptr %16, align 8, !tbaa !10
  call void @llvm.lifetime.start.p0(i64 8, ptr %17) #9
  call void @llvm.lifetime.start.p0(i64 16, ptr %18) #9
  call void @llvm.memset.p0.i64(ptr align 16 %18, i8 0, i64 16, i1 false)
  %23 = load i64, ptr %12, align 8, !tbaa !14
  %24 = load i64, ptr %10, align 8, !tbaa !14
  %25 = icmp ult i64 %23, %24
  br i1 %25, label %26, label %27

26:                                               ; preds = %6
  store i32 -22, ptr %7, align 4
  store i32 1, ptr %19, align 4
  br label %194

27:                                               ; preds = %6
  %28 = load i64, ptr %10, align 8, !tbaa !14
  %29 = load ptr, ptr %13, align 8, !tbaa !34
  store i64 %28, ptr %29, align 8, !tbaa !14
  %30 = load i64, ptr %10, align 8, !tbaa !14
  %31 = icmp eq i64 %30, 0
  br i1 %31, label %32, label %33

32:                                               ; preds = %27
  store i32 0, ptr %7, align 4
  store i32 1, ptr %19, align 4
  br label %194

33:                                               ; preds = %27
  %34 = load ptr, ptr %11, align 8, !tbaa !10
  %35 = load ptr, ptr %9, align 8, !tbaa !10
  %36 = icmp ugt ptr %34, %35
  br i1 %36, label %37, label %46

37:                                               ; preds = %33
  %38 = load ptr, ptr %11, align 8, !tbaa !10
  %39 = load ptr, ptr %9, align 8, !tbaa !10
  %40 = ptrtoint ptr %38 to i64
  %41 = ptrtoint ptr %39 to i64
  %42 = sub i64 %40, %41
  %43 = load i64, ptr %10, align 8, !tbaa !14
  %44 = icmp ult i64 %42, %43
  br i1 %44, label %45, label %46

45:                                               ; preds = %37
  store i32 -20, ptr %7, align 4
  store i32 1, ptr %19, align 4
  br label %194

46:                                               ; preds = %37, %33
  %47 = load ptr, ptr %8, align 8, !tbaa !3
  %48 = getelementptr inbounds nuw %struct.mbedtls_gcm_context, ptr %47, i32 0, i32 2
  %49 = load i64, ptr %48, align 8, !tbaa !26
  %50 = load i64, ptr %10, align 8, !tbaa !14
  %51 = add i64 %49, %50
  %52 = load ptr, ptr %8, align 8, !tbaa !3
  %53 = getelementptr inbounds nuw %struct.mbedtls_gcm_context, ptr %52, i32 0, i32 2
  %54 = load i64, ptr %53, align 8, !tbaa !26
  %55 = icmp ult i64 %51, %54
  br i1 %55, label %63, label %56

56:                                               ; preds = %46
  %57 = load ptr, ptr %8, align 8, !tbaa !3
  %58 = getelementptr inbounds nuw %struct.mbedtls_gcm_context, ptr %57, i32 0, i32 2
  %59 = load i64, ptr %58, align 8, !tbaa !26
  %60 = load i64, ptr %10, align 8, !tbaa !14
  %61 = add i64 %59, %60
  %62 = icmp ugt i64 %61, 68719476704
  br i1 %62, label %63, label %64

63:                                               ; preds = %56, %46
  store i32 -20, ptr %7, align 4
  store i32 1, ptr %19, align 4
  br label %194

64:                                               ; preds = %56
  %65 = load ptr, ptr %8, align 8, !tbaa !3
  %66 = getelementptr inbounds nuw %struct.mbedtls_gcm_context, ptr %65, i32 0, i32 2
  %67 = load i64, ptr %66, align 8, !tbaa !26
  %68 = icmp eq i64 %67, 0
  br i1 %68, label %69, label %83

69:                                               ; preds = %64
  %70 = load ptr, ptr %8, align 8, !tbaa !3
  %71 = getelementptr inbounds nuw %struct.mbedtls_gcm_context, ptr %70, i32 0, i32 3
  %72 = load i64, ptr %71, align 8, !tbaa !27
  %73 = urem i64 %72, 16
  %74 = icmp ne i64 %73, 0
  br i1 %74, label %75, label %83

75:                                               ; preds = %69
  %76 = load ptr, ptr %8, align 8, !tbaa !3
  %77 = load ptr, ptr %8, align 8, !tbaa !3
  %78 = getelementptr inbounds nuw %struct.mbedtls_gcm_context, ptr %77, i32 0, i32 6
  %79 = getelementptr inbounds [16 x i8], ptr %78, i64 0, i64 0
  %80 = load ptr, ptr %8, align 8, !tbaa !3
  %81 = getelementptr inbounds nuw %struct.mbedtls_gcm_context, ptr %80, i32 0, i32 6
  %82 = getelementptr inbounds [16 x i8], ptr %81, i64 0, i64 0
  call void @gcm_mult(ptr noundef %76, ptr noundef %79, ptr noundef %82)
  br label %83

83:                                               ; preds = %75, %69, %64
  %84 = load ptr, ptr %8, align 8, !tbaa !3
  %85 = getelementptr inbounds nuw %struct.mbedtls_gcm_context, ptr %84, i32 0, i32 2
  %86 = load i64, ptr %85, align 8, !tbaa !26
  %87 = urem i64 %86, 16
  store i64 %87, ptr %17, align 8, !tbaa !14
  %88 = load i64, ptr %17, align 8, !tbaa !14
  %89 = icmp ne i64 %88, 0
  br i1 %89, label %90, label %140

90:                                               ; preds = %83
  call void @llvm.lifetime.start.p0(i64 8, ptr %20) #9
  %91 = load i64, ptr %17, align 8, !tbaa !14
  %92 = sub i64 16, %91
  store i64 %92, ptr %20, align 8, !tbaa !14
  %93 = load i64, ptr %20, align 8, !tbaa !14
  %94 = load i64, ptr %10, align 8, !tbaa !14
  %95 = icmp ugt i64 %93, %94
  br i1 %95, label %96, label %98

96:                                               ; preds = %90
  %97 = load i64, ptr %10, align 8, !tbaa !14
  store i64 %97, ptr %20, align 8, !tbaa !14
  br label %98

98:                                               ; preds = %96, %90
  %99 = load ptr, ptr %8, align 8, !tbaa !3
  %100 = getelementptr inbounds [16 x i8], ptr %18, i64 0, i64 0
  %101 = load i64, ptr %17, align 8, !tbaa !14
  %102 = load i64, ptr %20, align 8, !tbaa !14
  %103 = load ptr, ptr %15, align 8, !tbaa !10
  %104 = load ptr, ptr %16, align 8, !tbaa !10
  %105 = call i32 @gcm_mask(ptr noundef %99, ptr noundef %100, i64 noundef %101, i64 noundef %102, ptr noundef %103, ptr noundef %104)
  store i32 %105, ptr %14, align 4, !tbaa !8
  %106 = icmp ne i32 %105, 0
  br i1 %106, label %107, label %109

107:                                              ; preds = %98
  %108 = load i32, ptr %14, align 4, !tbaa !8
  store i32 %108, ptr %7, align 4
  store i32 1, ptr %19, align 4
  br label %137

109:                                              ; preds = %98
  %110 = load i64, ptr %17, align 8, !tbaa !14
  %111 = load i64, ptr %20, align 8, !tbaa !14
  %112 = add i64 %110, %111
  %113 = icmp eq i64 %112, 16
  br i1 %113, label %114, label %122

114:                                              ; preds = %109
  %115 = load ptr, ptr %8, align 8, !tbaa !3
  %116 = load ptr, ptr %8, align 8, !tbaa !3
  %117 = getelementptr inbounds nuw %struct.mbedtls_gcm_context, ptr %116, i32 0, i32 6
  %118 = getelementptr inbounds [16 x i8], ptr %117, i64 0, i64 0
  %119 = load ptr, ptr %8, align 8, !tbaa !3
  %120 = getelementptr inbounds nuw %struct.mbedtls_gcm_context, ptr %119, i32 0, i32 6
  %121 = getelementptr inbounds [16 x i8], ptr %120, i64 0, i64 0
  call void @gcm_mult(ptr noundef %115, ptr noundef %118, ptr noundef %121)
  br label %122

122:                                              ; preds = %114, %109
  %123 = load i64, ptr %20, align 8, !tbaa !14
  %124 = load ptr, ptr %8, align 8, !tbaa !3
  %125 = getelementptr inbounds nuw %struct.mbedtls_gcm_context, ptr %124, i32 0, i32 2
  %126 = load i64, ptr %125, align 8, !tbaa !26
  %127 = add i64 %126, %123
  store i64 %127, ptr %125, align 8, !tbaa !26
  %128 = load i64, ptr %20, align 8, !tbaa !14
  %129 = load i64, ptr %10, align 8, !tbaa !14
  %130 = sub i64 %129, %128
  store i64 %130, ptr %10, align 8, !tbaa !14
  %131 = load i64, ptr %20, align 8, !tbaa !14
  %132 = load ptr, ptr %15, align 8, !tbaa !10
  %133 = getelementptr inbounds nuw i8, ptr %132, i64 %131
  store ptr %133, ptr %15, align 8, !tbaa !10
  %134 = load i64, ptr %20, align 8, !tbaa !14
  %135 = load ptr, ptr %16, align 8, !tbaa !10
  %136 = getelementptr inbounds nuw i8, ptr %135, i64 %134
  store ptr %136, ptr %16, align 8, !tbaa !10
  store i32 0, ptr %19, align 4
  br label %137

137:                                              ; preds = %122, %107
  call void @llvm.lifetime.end.p0(i64 8, ptr %20) #9
  %138 = load i32, ptr %19, align 4
  switch i32 %138, label %194 [
    i32 0, label %139
  ]

139:                                              ; preds = %137
  br label %140

140:                                              ; preds = %139, %83
  %141 = load i64, ptr %10, align 8, !tbaa !14
  %142 = load ptr, ptr %8, align 8, !tbaa !3
  %143 = getelementptr inbounds nuw %struct.mbedtls_gcm_context, ptr %142, i32 0, i32 2
  %144 = load i64, ptr %143, align 8, !tbaa !26
  %145 = add i64 %144, %141
  store i64 %145, ptr %143, align 8, !tbaa !26
  br label %146

146:                                              ; preds = %161, %140
  %147 = load i64, ptr %10, align 8, !tbaa !14
  %148 = icmp uge i64 %147, 16
  br i1 %148, label %149, label %175

149:                                              ; preds = %146
  %150 = load ptr, ptr %8, align 8, !tbaa !3
  %151 = getelementptr inbounds nuw %struct.mbedtls_gcm_context, ptr %150, i32 0, i32 5
  %152 = getelementptr inbounds [16 x i8], ptr %151, i64 0, i64 0
  call void @gcm_incr(ptr noundef %152)
  %153 = load ptr, ptr %8, align 8, !tbaa !3
  %154 = getelementptr inbounds [16 x i8], ptr %18, i64 0, i64 0
  %155 = load ptr, ptr %15, align 8, !tbaa !10
  %156 = load ptr, ptr %16, align 8, !tbaa !10
  %157 = call i32 @gcm_mask(ptr noundef %153, ptr noundef %154, i64 noundef 0, i64 noundef 16, ptr noundef %155, ptr noundef %156)
  store i32 %157, ptr %14, align 4, !tbaa !8
  %158 = icmp ne i32 %157, 0
  br i1 %158, label %159, label %161

159:                                              ; preds = %149
  %160 = load i32, ptr %14, align 4, !tbaa !8
  store i32 %160, ptr %7, align 4
  store i32 1, ptr %19, align 4
  br label %194

161:                                              ; preds = %149
  %162 = load ptr, ptr %8, align 8, !tbaa !3
  %163 = load ptr, ptr %8, align 8, !tbaa !3
  %164 = getelementptr inbounds nuw %struct.mbedtls_gcm_context, ptr %163, i32 0, i32 6
  %165 = getelementptr inbounds [16 x i8], ptr %164, i64 0, i64 0
  %166 = load ptr, ptr %8, align 8, !tbaa !3
  %167 = getelementptr inbounds nuw %struct.mbedtls_gcm_context, ptr %166, i32 0, i32 6
  %168 = getelementptr inbounds [16 x i8], ptr %167, i64 0, i64 0
  call void @gcm_mult(ptr noundef %162, ptr noundef %165, ptr noundef %168)
  %169 = load i64, ptr %10, align 8, !tbaa !14
  %170 = sub i64 %169, 16
  store i64 %170, ptr %10, align 8, !tbaa !14
  %171 = load ptr, ptr %15, align 8, !tbaa !10
  %172 = getelementptr inbounds i8, ptr %171, i64 16
  store ptr %172, ptr %15, align 8, !tbaa !10
  %173 = load ptr, ptr %16, align 8, !tbaa !10
  %174 = getelementptr inbounds i8, ptr %173, i64 16
  store ptr %174, ptr %16, align 8, !tbaa !10
  br label %146, !llvm.loop !36

175:                                              ; preds = %146
  %176 = load i64, ptr %10, align 8, !tbaa !14
  %177 = icmp ugt i64 %176, 0
  br i1 %177, label %178, label %192

178:                                              ; preds = %175
  %179 = load ptr, ptr %8, align 8, !tbaa !3
  %180 = getelementptr inbounds nuw %struct.mbedtls_gcm_context, ptr %179, i32 0, i32 5
  %181 = getelementptr inbounds [16 x i8], ptr %180, i64 0, i64 0
  call void @gcm_incr(ptr noundef %181)
  %182 = load ptr, ptr %8, align 8, !tbaa !3
  %183 = getelementptr inbounds [16 x i8], ptr %18, i64 0, i64 0
  %184 = load i64, ptr %10, align 8, !tbaa !14
  %185 = load ptr, ptr %15, align 8, !tbaa !10
  %186 = load ptr, ptr %16, align 8, !tbaa !10
  %187 = call i32 @gcm_mask(ptr noundef %182, ptr noundef %183, i64 noundef 0, i64 noundef %184, ptr noundef %185, ptr noundef %186)
  store i32 %187, ptr %14, align 4, !tbaa !8
  %188 = icmp ne i32 %187, 0
  br i1 %188, label %189, label %191

189:                                              ; preds = %178
  %190 = load i32, ptr %14, align 4, !tbaa !8
  store i32 %190, ptr %7, align 4
  store i32 1, ptr %19, align 4
  br label %194

191:                                              ; preds = %178
  br label %192

192:                                              ; preds = %191, %175
  %193 = getelementptr inbounds [16 x i8], ptr %18, i64 0, i64 0
  call void @mbedtls_platform_zeroize(ptr noundef %193, i64 noundef 16)
  store i32 0, ptr %7, align 4
  store i32 1, ptr %19, align 4
  br label %194

194:                                              ; preds = %192, %189, %159, %137, %63, %45, %32, %26
  call void @llvm.lifetime.end.p0(i64 16, ptr %18) #9
  call void @llvm.lifetime.end.p0(i64 8, ptr %17) #9
  call void @llvm.lifetime.end.p0(i64 8, ptr %16) #9
  call void @llvm.lifetime.end.p0(i64 8, ptr %15) #9
  call void @llvm.lifetime.end.p0(i64 4, ptr %14) #9
  %195 = load i32, ptr %7, align 4
  ret i32 %195
}